target datalayout = "e-m:e-p270:32:32-p271:32:32-p272:64:64-i64:64-i128:128-f80:128-n8:16:32:64-S128"
target triple = "x86_64-pc-linux-gnu"

%struct.point = type { i32, i32 }
%struct.nitem = type { %struct.dtlink_s_, i32, %struct.point, ptr, ptr, ptr, %struct.box }
%struct.dtlink_s_ = type { ptr, %union.anon }
%union.anon = type { ptr }
%struct.box = type { %struct.point, %struct.point }
%struct.Agobj_s = type { %struct.Agtag_s, ptr }
%struct.Agtag_s = type { i32, i64 }
%struct.Agnodeinfo_t = type { %struct.Agrec_s, ptr, ptr, %struct.pointf_s, double, double, %struct.boxf, double, double, double, double, double, ptr, ptr, ptr, i8, i8, i8, i8, i32, i32, i32, ptr, double, i8, i8, ptr, ptr, i8, i64, i8, i8, i8, ptr, ptr, %struct.elist, %struct.elist, %struct.elist, %struct.elist, %struct.elist, ptr, i32, ptr, i32, i32, double, %struct.elist, %struct.elist, %struct.elist, %struct.elist, ptr, i32, i32, i32, [1 x double] }
%struct.Agrec_s = type { ptr, ptr }
%struct.pointf_s = type { double, double }
%struct.boxf = type { %struct.pointf_s, %struct.pointf_s }
%struct.elist = type { ptr, i64 }
%struct.dt_s_ = type { ptr, ptr, %struct.Dtdata_t, ptr, i32, ptr, ptr, ptr }
%struct.Dtdata_t = type { i32, ptr, %union.anon.0, i32, i32, i32 }
%union.anon.0 = type { ptr }

@Dtobag = external global ptr, align 8
@constr = internal global { i32, i32, i32, [4 x i8], ptr, ptr, ptr } { i32 16, i32 4, i32 0, [4 x i8] zeroinitializer, ptr null, ptr null, ptr @cmpitem }, align 8

; Function Attrs: nounwind uwtable
define internal void @closeGraph(ptr noundef %0) #0 {
  %2 = alloca ptr, align 8
  %3 = alloca ptr, align 8
  store ptr %0, ptr %2, align 8, !tbaa !3
  call void @llvm.lifetime.start.p0(i64 8, ptr %3) #12
  %4 = load ptr, ptr %2, align 8, !tbaa !3
  %5 = call ptr @agfstnode(ptr noundef %4)
  store ptr %5, ptr %3, align 8, !tbaa !17
  br label %6

6:                                                ; preds = %22, %1
  %7 = load ptr, ptr %3, align 8, !tbaa !17
  %8 = icmp ne ptr %7, null
  br i1 %8, label %9, label %26

9:                                                ; preds = %6
  %10 = load ptr, ptr %3, align 8, !tbaa !17
  %11 = getelementptr inbounds nuw %struct.Agobj_s, ptr %10, i32 0, i32 1
  %12 = load ptr, ptr %11, align 8, !tbaa !29
  %13 = getelementptr inbounds nuw %struct.Agnodeinfo_t, ptr %12, i32 0, i32 35
  %14 = getelementptr inbounds nuw %struct.elist, ptr %13, i32 0, i32 0
  %15 = load ptr, ptr %14, align 8, !tbaa !129
  call void @free(ptr noundef %15) #12
  %16 = load ptr, ptr %3, align 8, !tbaa !17
  %17 = getelementptr inbounds nuw %struct.Agobj_s, ptr %16, i32 0, i32 1
  %18 = load ptr, ptr %17, align 8, !tbaa !29
  %19 = getelementptr inbounds nuw %struct.Agnodeinfo_t, ptr %18, i32 0, i32 36
  %20 = getelementptr inbounds nuw %struct.elist, ptr %19, i32 0, i32 0
  %21 = load ptr, ptr %20, align 8, !tbaa !131
  call void @free(ptr noundef %21) #12
  br label %22

22:                                               ; preds = %9
  %23 = load ptr, ptr %2, align 8, !tbaa !3
  %24 = load ptr, ptr %3, align 8, !tbaa !17
  %25 = call ptr @agnxtnode(ptr noundef %23, ptr noundef %24)
  store ptr %25, ptr %3, align 8, !tbaa !17
  br label %6, !llvm.loop !152

26:                                               ; preds = %6
  %27 = load ptr, ptr %2, align 8, !tbaa !3
  %28 = call i32 @agclose(ptr noundef %27)
  call void @llvm.lifetime.end.p0(i64 8, ptr %3) #12
  ret void
}

; Function Attrs: nounwind uwtable
define internal void @constrainX(ptr noundef %0, ptr noundef %1, i32 noundef %2, ptr noundef %3, i32 noundef %4) #0 {
  %6 = alloca ptr, align 8
  %7 = alloca ptr, align 8
  %8 = alloca i32, align 4
  %9 = alloca ptr, align 8
  %10 = alloca i32, align 4
  %11 = alloca ptr, align 8
  %12 = alloca ptr, align 8
  %13 = alloca ptr, align 8
  %14 = alloca i32, align 4
  %15 = alloca i32, align 4
  %16 = alloca i32, align 4
  %17 = alloca i32, align 4
  store ptr %0, ptr %6, align 8, !tbaa !3
  store ptr %1, ptr %7, align 8, !tbaa !10
  store i32 %2, ptr %8, align 4, !tbaa !8
  store ptr %3, ptr %9, align 8, !tbaa !51
  store i32 %4, ptr %10, align 4, !tbaa !8
  call void @llvm.lifetime.start.p0(i64 8, ptr %11) #12
  %18 = load ptr, ptr @Dtobag, align 8, !tbaa !51
  %19 = call ptr @dtopen(ptr noundef @constr, ptr noundef %18)
  store ptr %19, ptr %11, align 8, !tbaa !73
  call void @llvm.lifetime.start.p0(i64 8, ptr %12) #12
  %20 = load ptr, ptr %7, align 8, !tbaa !10
  store ptr %20, ptr %12, align 8, !tbaa !10
  call void @llvm.lifetime.start.p0(i64 8, ptr %13) #12
  call void @llvm.lifetime.start.p0(i64 4, ptr %14) #12
  store i32 0, ptr %14, align 4, !tbaa !8
  br label %21

21:                                               ; preds = %40, %5
  %22 = load i32, ptr %14, align 4, !tbaa !8
  %23 = load i32, ptr %8, align 4, !tbaa !8
  %24 = icmp slt i32 %22, %23
  br i1 %24, label %25, label %43

25:                                               ; preds = %21
  %26 = load ptr, ptr %12, align 8, !tbaa !10
  %27 = getelementptr inbounds nuw %struct.nitem, ptr %26, i32 0, i32 2
  %28 = getelementptr inbounds nuw %struct.point, ptr %27, i32 0, i32 0
  %29 = load i32, ptr %28, align 4, !tbaa !64
  %30 = load ptr, ptr %12, align 8, !tbaa !10
  %31 = getelementptr inbounds nuw %struct.nitem, ptr %30, i32 0, i32 1
  store i32 %29, ptr %31, align 8, !tbaa !75
  %32 = load ptr, ptr %11, align 8, !tbaa !73
  %33 = getelementptr inbounds nuw %struct.dt_s_, ptr %32, i32 0, i32 0
  %34 = load ptr, ptr %33, align 8, !tbaa !76
  %35 = load ptr, ptr %11, align 8, !tbaa !73
  %36 = load ptr, ptr %12, align 8, !tbaa !10
  %37 = call ptr %34(ptr noundef %35, ptr noundef %36, i32 noundef 1)
  %38 = load ptr, ptr %12, align 8, !tbaa !10
  %39 = getelementptr inbounds nuw %struct.nitem, ptr %38, i32 1
  store ptr %39, ptr %12, align 8, !tbaa !10
  br label %40

40:                                               ; preds = %25
  %41 = load i32, ptr %14, align 4, !tbaa !8
  %42 = add nsw i32 %41, 1
  store i32 %42, ptr %14, align 4, !tbaa !8
  br label %21, !llvm.loop !80

43:                                               ; preds = %21
  %44 = load i32, ptr %10, align 4, !tbaa !8
  %45 = icmp ne i32 %44, 0
  br i1 %45, label %46, label %50

46:                                               ; preds = %43
  %47 = load ptr, ptr %11, align 8, !tbaa !73
  %48 = load ptr, ptr %9, align 8, !tbaa !51
  %49 = call ptr @mkConstraintG(ptr noundef %47, ptr noundef %48, ptr noundef @distX)
  store ptr %49, ptr %13, align 8, !tbaa !3
  br label %55

50:                                               ; preds = %43
  %51 = load ptr, ptr %6, align 8, !tbaa !3
  %52 = load ptr, ptr %11, align 8, !tbaa !73
  %53 = load ptr, ptr %9, align 8, !tbaa !51
  %54 = call ptr @mkNConstraintG(ptr noundef %51, ptr noundef %52, ptr noundef %53, ptr noundef @distX)
  store ptr %54, ptr %13, align 8, !tbaa !3
  br label %55

55:                                               ; preds = %50, %46
  %56 = load ptr, ptr %13, align 8, !tbaa !3
  %57 = call i32 @rank(ptr noundef %56, i32 noundef 2, i32 noundef 2147483647)
  %58 = load ptr, ptr %7, align 8, !tbaa !10
  store ptr %58, ptr %12, align 8, !tbaa !10
  store i32 0, ptr %14, align 4, !tbaa !8
  br label %59

59:                                               ; preds = %98, %55
  %60 = load i32, ptr %14, align 4, !tbaa !8
  %61 = load i32, ptr %8, align 4, !tbaa !8
  %62 = icmp slt i32 %60, %61
  br i1 %62, label %63, label %101

63:                                               ; preds = %59
  call void @llvm.lifetime.start.p0(i64 4, ptr %15) #12
  call void @llvm.lifetime.start.p0(i64 4, ptr %16) #12
  call void @llvm.lifetime.start.p0(i64 4, ptr %17) #12
  %64 = load ptr, ptr %12, align 8, !tbaa !10
  %65 = getelementptr inbounds nuw %struct.nitem, ptr %64, i32 0, i32 2
  %66 = getelementptr inbounds nuw %struct.point, ptr %65, i32 0, i32 0
  %67 = load i32, ptr %66, align 4, !tbaa !64
  store i32 %67, ptr %16, align 4, !tbaa !8
  %68 = load ptr, ptr %12, align 8, !tbaa !10
  %69 = getelementptr inbounds nuw %struct.nitem, ptr %68, i32 0, i32 4
  %70 = load ptr, ptr %69, align 8, !tbaa !81
  %71 = getelementptr inbounds nuw %struct.Agobj_s, ptr %70, i32 0, i32 1
  %72 = load ptr, ptr %71, align 8, !tbaa !29
  %73 = getelementptr inbounds nuw %struct.Agnodeinfo_t, ptr %72, i32 0, i32 43
  %74 = load i32, ptr %73, align 8, !tbaa !82
  store i32 %74, ptr %15, align 4, !tbaa !8
  %75 = load i32, ptr %15, align 4, !tbaa !8
  %76 = load i32, ptr %16, align 4, !tbaa !8
  %77 = sub nsw i32 %75, %76
  store i32 %77, ptr %17, align 4, !tbaa !8
  %78 = load i32, ptr %15, align 4, !tbaa !8
  %79 = load ptr, ptr %12, align 8, !tbaa !10
  %80 = getelementptr inbounds nuw %struct.nitem, ptr %79, i32 0, i32 2
  %81 = getelementptr inbounds nuw %struct.point, ptr %80, i32 0, i32 0
  store i32 %78, ptr %81, align 4, !tbaa !64
  %82 = load i32, ptr %17, align 4, !tbaa !8
  %83 = load ptr, ptr %12, align 8, !tbaa !10
  %84 = getelementptr inbounds nuw %struct.nitem, ptr %83, i32 0, i32 6
  %85 = getelementptr inbounds nuw %struct.box, ptr %84, i32 0, i32 0
  %86 = getelementptr inbounds nuw %struct.point, ptr %85, i32 0, i32 0
  %87 = load i32, ptr %86, align 8, !tbaa !68
  %88 = add nsw i32 %87, %82
  store i32 %88, ptr %86, align 8, !tbaa !68
  %89 = load i32, ptr %17, align 4, !tbaa !8
  %90 = load ptr, ptr %12, align 8, !tbaa !10
  %91 = getelementptr inbounds nuw %struct.nitem, ptr %90, i32 0, i32 6
  %92 = getelementptr inbounds nuw %struct.box, ptr %91, i32 0, i32 1
  %93 = getelementptr inbounds nuw %struct.point, ptr %92, i32 0, i32 0
  %94 = load i32, ptr %93, align 8, !tbaa !67
  %95 = add nsw i32 %94, %89
  store i32 %95, ptr %93, align 8, !tbaa !67
  %96 = load ptr, ptr %12, align 8, !tbaa !10
  %97 = getelementptr inbounds nuw %struct.nitem, ptr %96, i32 1
  store ptr %97, ptr %12, align 8, !tbaa !10
  call void @llvm.lifetime.end.p0(i64 4, ptr %17) #12
  call void @llvm.lifetime.end.p0(i64 4, ptr %16) #12
  call void @llvm.lifetime.end.p0(i64 4, ptr %15) #12
  br label %98

98:                                               ; preds = %63
  %99 = load i32, ptr %14, align 4, !tbaa !8
  %100 = add nsw i32 %99, 1
  store i32 %100, ptr %14, align 4, !tbaa !8
  br label %59, !llvm.loop !83

101:                                              ; preds = %59
  %102 = load ptr, ptr %13, align 8, !tbaa !3
  call void @closeGraph(ptr noundef %102)
  %103 = load ptr, ptr %11, align 8, !tbaa !73
  %104 = call i32 @dtclose(ptr noundef %103)
  call void @llvm.lifetime.end.p0(i64 4, ptr %14) #12
  call void @llvm.lifetime.end.p0(i64 8, ptr %13) #12
  call void @llvm.lifetime.end.p0(i64 8, ptr %12) #12
  call void @llvm.lifetime.end.p0(i64 8, ptr %11) #12
  ret void
}